target datalayout = "e-m:e-p270:32:32-p271:32:32-p272:64:64-i64:64-i128:128-f80:128-n8:16:32:64-S128"
target triple = "x86_64-unknown-linux-gnu"

%struct.tm = type { i32, i32, i32, i32, i32, i32, i32, i32, i32, i64, ptr }

; Function Attrs: nounwind uwtable
define internal void @mz_zip_time_t_to_dos_time(i64 noundef %time, ptr noundef %pDOS_time, ptr noundef %pDOS_date) #0 {
entry:
  %time.addr = alloca i64, align 8
  %pDOS_time.addr = alloca ptr, align 8
  %pDOS_date.addr = alloca ptr, align 8
  %tm = alloca ptr, align 8
  store i64 %time, ptr %time.addr, align 8
  store ptr %pDOS_time, ptr %pDOS_time.addr, align 8
  store ptr %pDOS_date, ptr %pDOS_date.addr, align 8
  %call = call ptr @localtime(ptr noundef %time.addr) #10
  store ptr %call, ptr %tm, align 8
  %0 = load ptr, ptr %tm, align 8
  %tm_hour = getelementptr inbounds %struct.tm, ptr %0, i32 0, i32 2
  %1 = load i32, ptr %tm_hour, align 8
  %shl = shl i32 %1, 11
  %2 = load ptr, ptr %tm, align 8
  %tm_min = getelementptr inbounds %struct.tm, ptr %2, i32 0, i32 1
  %3 = load i32, ptr %tm_min, align 4
  %shl1 = shl i32 %3, 5
  %add = add nsw i32 %shl, %shl1
  %4 = load ptr, ptr %tm, align 8
  %tm_sec = getelementptr inbounds %struct.tm, ptr %4, i32 0, i32 0
  %5 = load i32, ptr %tm_sec, align 8
  %shr = ashr i32 %5, 1
  %add2 = add nsw i32 %add, %shr
  %conv = trunc i32 %add2 to i16
  %6 = load ptr, ptr %pDOS_time.addr, align 8
  store i16 %conv, ptr %6, align 2
  %7 = load ptr, ptr %tm, align 8
  %tm_year = getelementptr inbounds %struct.tm, ptr %7, i32 0, i32 5
  %8 = load i32, ptr %tm_year, align 4
  %add3 = add nsw i32 %8, 1900
  %sub = sub nsw i32 %add3, 1980
  %shl4 = shl i32 %sub, 9
  %9 = load ptr, ptr %tm, align 8
  %tm_mon = getelementptr inbounds %struct.tm, ptr %9, i32 0, i32 4
  %10 = load i32, ptr %tm_mon, align 8
  %add5 = add nsw i32 %10, 1
  %shl6 = shl i32 %add5, 5
  %add7 = add nsw i32 %shl4, %shl6
  %11 = load ptr, ptr %tm, align 8
  %tm_mday = getelementptr inbounds %struct.tm, ptr %11, i32 0, i32 3
  %12 = load i32, ptr %tm_mday, align 4
  %add8 = add nsw i32 %add7, %12
  %conv9 = trunc i32 %add8 to i16
  %13 = load ptr, ptr %pDOS_date.addr, align 8
  store i16 %conv9, ptr %13, align 2
  ret void
}