; Function Attrs: nounwind uwtable
define internal fastcc void @mz_zip_time_t_to_dos_time(i64 noundef %time, ptr noundef nonnull writeonly captures(none) initializes((0, 2)) %pDOS_time, ptr noundef nonnull writeonly captures(none) initializes((0, 2)) %pDOS_date) unnamed_addr #4 {
entry:
  %time.addr = alloca i64, align 8
  store i64 %time, ptr %time.addr, align 8
  %call = call ptr @localtime(ptr noundef nonnull %time.addr) #30
  %tm_hour = getelementptr inbounds nuw i8, ptr %call, i64 8
  %0 = load i32, ptr %tm_hour, align 8
  %shl = shl i32 %0, 11
  %tm_min = getelementptr inbounds nuw i8, ptr %call, i64 4
  %1 = load i32, ptr %tm_min, align 4
  %shl1 = shl i32 %1, 5
  %add = add nsw i32 %shl1, %shl
  %2 = load i32, ptr %call, align 8
  %shr = lshr i32 %2, 1
  %add2 = add i32 %add, %shr
  %conv = trunc i32 %add2 to i16
  store i16 %conv, ptr %pDOS_time, align 2
  %tm_year = getelementptr inbounds nuw i8, ptr %call, i64 20
  %3 = load i32, ptr %tm_year, align 4
  %sub = shl i32 %3, 9
  %tm_mon = getelementptr inbounds nuw i8, ptr %call, i64 16
  %4 = load i32, ptr %tm_mon, align 8
  %add5 = shl i32 %4, 5
  %tm_mday = getelementptr inbounds nuw i8, ptr %call, i64 12
  %5 = load i32, ptr %tm_mday, align 4
  %shl6 = add i32 %sub, 24608
  %add7 = add i32 %shl6, %add5
  %add8 = add i32 %add7, %5
  %conv9 = trunc i32 %add8 to i16
  store i16 %conv9, ptr %pDOS_date, align 2
  ret void
}